target datalayout = "e-m:e-p270:32:32-p271:32:32-p272:64:64-i64:64-i128:128-f80:128-n8:16:32:64-S128"
target triple = "x86_64-pc-linux-gnu"

%struct.UtvideoContext = type { ptr, %struct.UTVideoDSPContext, %struct.BswapDSPContext, %struct.LLVidDSPContext, i32, i32, i32, i32, i32, i32, i32, i32, i32, i32, i32, ptr, i32, ptr, [4 x [256 x ptr]], [4 x [256 x i64]], [4 x [256 x ptr]], [4 x [256 x i64]] }
%struct.UTVideoDSPContext = type { ptr, ptr }
%struct.BswapDSPContext = type { ptr, ptr }
%struct.LLVidDSPContext = type { ptr, ptr, ptr, ptr, ptr }
%struct.HuffEntry = type { i8, i16 }

; Function Attrs: nounwind uwtable
define internal i32 @build_huff(ptr noundef %0, ptr noundef %1, ptr noundef %2, ptr noundef %3, ptr noundef %4, i32 noundef %5) #1 {
  %7 = alloca i32, align 4
  %8 = alloca ptr, align 8
  %9 = alloca ptr, align 8
  %10 = alloca ptr, align 8
  %11 = alloca ptr, align 8
  %12 = alloca ptr, align 8
  %13 = alloca i32, align 4
  %14 = alloca i32, align 4
  %15 = alloca [1024 x %struct.HuffEntry], align 16
  %16 = alloca [1024 x i8], align 16
  %17 = alloca [33 x i16], align 16
  %18 = alloca i32, align 4
  %19 = alloca i32, align 4
  %20 = alloca i32, align 4
  %21 = alloca %struct.HuffEntry, align 2
  store ptr %0, ptr %8, align 8, !tbaa !29
  store ptr %1, ptr %9, align 8, !tbaa !62
  store ptr %2, ptr %10, align 8, !tbaa !152
  store ptr %3, ptr %11, align 8, !tbaa !154
  store ptr %4, ptr %12, align 8, !tbaa !57
  store i32 %5, ptr %13, align 4, !tbaa !44
  call void @llvm.lifetime.start.p0(i64 4, ptr %14) #11
  call void @llvm.lifetime.start.p0(i64 4096, ptr %15) #11
  call void @llvm.lifetime.start.p0(i64 1024, ptr %16) #11
  call void @llvm.lifetime.start.p0(i64 66, ptr %17) #11
  call void @llvm.memset.p0.i64(ptr align 16 %17, i8 0, i64 66, i1 false)
  %22 = load ptr, ptr %12, align 8, !tbaa !57
  store i32 -1, ptr %22, align 4, !tbaa !44
  store i32 0, ptr %14, align 4, !tbaa !44
  br label %23

23:                                               ; preds = %79, %6
  %24 = load i32, ptr %14, align 4, !tbaa !44
  %25 = load i32, ptr %13, align 4, !tbaa !44
  %26 = icmp ult i32 %24, %25
  br i1 %26, label %27, label %82

27:                                               ; preds = %23
  %28 = load ptr, ptr %9, align 8, !tbaa !62
  %29 = load i32, ptr %14, align 4, !tbaa !44
  %30 = sext i32 %29 to i64
  %31 = getelementptr inbounds i8, ptr %28, i64 %30
  %32 = load i8, ptr %31, align 1, !tbaa !48
  %33 = zext i8 %32 to i32
  %34 = icmp eq i32 %33, 0
  br i1 %34, label %35, label %38

35:                                               ; preds = %27
  %36 = load i32, ptr %14, align 4, !tbaa !44
  %37 = load ptr, ptr %12, align 8, !tbaa !57
  store i32 %36, ptr %37, align 4, !tbaa !44
  store i32 0, ptr %7, align 4
  store i32 1, ptr %18, align 4
  br label %155

38:                                               ; preds = %27
  %39 = load ptr, ptr %9, align 8, !tbaa !62
  %40 = load i32, ptr %14, align 4, !tbaa !44
  %41 = sext i32 %40 to i64
  %42 = getelementptr inbounds i8, ptr %39, i64 %41
  %43 = load i8, ptr %42, align 1, !tbaa !48
  %44 = zext i8 %43 to i32
  %45 = icmp eq i32 %44, 255
  br i1 %45, label %46, label %50

46:                                               ; preds = %38
  %47 = load i32, ptr %14, align 4, !tbaa !44
  %48 = sext i32 %47 to i64
  %49 = getelementptr inbounds [1024 x i8], ptr %16, i64 0, i64 %48
  store i8 0, ptr %49, align 1, !tbaa !48
  br label %69

50:                                               ; preds = %38
  %51 = load ptr, ptr %9, align 8, !tbaa !62
  %52 = load i32, ptr %14, align 4, !tbaa !44
  %53 = sext i32 %52 to i64
  %54 = getelementptr inbounds i8, ptr %51, i64 %53
  %55 = load i8, ptr %54, align 1, !tbaa !48
  %56 = zext i8 %55 to i32
  %57 = icmp sle i32 %56, 32
  br i1 %57, label %58, label %67

58:                                               ; preds = %50
  %59 = load ptr, ptr %9, align 8, !tbaa !62
  %60 = load i32, ptr %14, align 4, !tbaa !44
  %61 = sext i32 %60 to i64
  %62 = getelementptr inbounds i8, ptr %59, i64 %61
  %63 = load i8, ptr %62, align 1, !tbaa !48
  %64 = load i32, ptr %14, align 4, !tbaa !44
  %65 = sext i32 %64 to i64
  %66 = getelementptr inbounds [1024 x i8], ptr %16, i64 0, i64 %65
  store i8 %63, ptr %66, align 1, !tbaa !48
  br label %68

67:                                               ; preds = %50
  store i32 -1094995529, ptr %7, align 4
  store i32 1, ptr %18, align 4
  br label %155

68:                                               ; preds = %58
  br label %69

69:                                               ; preds = %68, %46
  br label %70

70:                                               ; preds = %69
  %71 = load i32, ptr %14, align 4, !tbaa !44
  %72 = sext i32 %71 to i64
  %73 = getelementptr inbounds [1024 x i8], ptr %16, i64 0, i64 %72
  %74 = load i8, ptr %73, align 1, !tbaa !48
  %75 = zext i8 %74 to i64
  %76 = getelementptr inbounds nuw [33 x i16], ptr %17, i64 0, i64 %75
  %77 = load i16, ptr %76, align 2, !tbaa !132
  %78 = add i16 %77, 1
  store i16 %78, ptr %76, align 2, !tbaa !132
  br label %79

79:                                               ; preds = %70
  %80 = load i32, ptr %14, align 4, !tbaa !44
  %81 = add nsw i32 %80, 1
  store i32 %81, ptr %14, align 4, !tbaa !44
  br label %23, !llvm.loop !156

82:                                               ; preds = %23
  %83 = getelementptr inbounds [33 x i16], ptr %17, i64 0, i64 0
  %84 = load i16, ptr %83, align 16, !tbaa !132
  %85 = zext i16 %84 to i32
  %86 = load i32, ptr %13, align 4, !tbaa !44
  %87 = icmp eq i32 %85, %86
  br i1 %87, label %88, label %89

88:                                               ; preds = %82
  store i32 -1094995529, ptr %7, align 4
  store i32 1, ptr %18, align 4
  br label %155

89:                                               ; preds = %82
  call void @llvm.lifetime.start.p0(i64 4, ptr %19) #11
  store i32 31, ptr %19, align 4, !tbaa !44
  br label %90

90:                                               ; preds = %108, %89
  %91 = load i32, ptr %19, align 4, !tbaa !44
  %92 = icmp sge i32 %91, 0
  br i1 %92, label %94, label %93

93:                                               ; preds = %90
  store i32 5, ptr %18, align 4
  call void @llvm.lifetime.end.p0(i64 4, ptr %19) #11
  br label %111

94:                                               ; preds = %90
  %95 = load i32, ptr %19, align 4, !tbaa !44
  %96 = add nsw i32 %95, 1
  %97 = sext i32 %96 to i64
  %98 = getelementptr inbounds [33 x i16], ptr %17, i64 0, i64 %97
  %99 = load i16, ptr %98, align 2, !tbaa !132
  %100 = zext i16 %99 to i32
  %101 = load i32, ptr %19, align 4, !tbaa !44
  %102 = sext i32 %101 to i64
  %103 = getelementptr inbounds [33 x i16], ptr %17, i64 0, i64 %102
  %104 = load i16, ptr %103, align 2, !tbaa !132
  %105 = zext i16 %104 to i32
  %106 = add nsw i32 %105, %100
  %107 = trunc i32 %106 to i16
  store i16 %107, ptr %103, align 2, !tbaa !132
  br label %108

108:                                              ; preds = %94
  %109 = load i32, ptr %19, align 4, !tbaa !44
  %110 = add nsw i32 %109, -1
  store i32 %110, ptr %19, align 4, !tbaa !44
  br label %90, !llvm.loop !157

111:                                              ; preds = %93
  call void @llvm.lifetime.start.p0(i64 4, ptr %20) #11
  store i32 0, ptr %20, align 4, !tbaa !44
  br label %112

112:                                              ; preds = %137, %111
  %113 = load i32, ptr %20, align 4, !tbaa !44
  %114 = load i32, ptr %13, align 4, !tbaa !44
  %115 = icmp ult i32 %113, %114
  br i1 %115, label %117, label %116

116:                                              ; preds = %112
  store i32 8, ptr %18, align 4
  call void @llvm.lifetime.end.p0(i64 4, ptr %20) #11
  br label %140

117:                                              ; preds = %112
  %118 = load i32, ptr %20, align 4, !tbaa !44
  %119 = zext i32 %118 to i64
  %120 = getelementptr inbounds nuw [1024 x i8], ptr %16, i64 0, i64 %119
  %121 = load i8, ptr %120, align 1, !tbaa !48
  %122 = zext i8 %121 to i64
  %123 = getelementptr inbounds nuw [33 x i16], ptr %17, i64 0, i64 %122
  %124 = load i16, ptr %123, align 2, !tbaa !132
  %125 = add i16 %124, -1
  store i16 %125, ptr %123, align 2, !tbaa !132
  %126 = zext i16 %125 to i64
  %127 = getelementptr inbounds nuw [1024 x %struct.HuffEntry], ptr %15, i64 0, i64 %126
  %128 = getelementptr inbounds nuw %struct.HuffEntry, ptr %21, i32 0, i32 0
  %129 = load i32, ptr %20, align 4, !tbaa !44
  %130 = zext i32 %129 to i64
  %131 = getelementptr inbounds nuw [1024 x i8], ptr %16, i64 0, i64 %130
  %132 = load i8, ptr %131, align 1, !tbaa !48
  store i8 %132, ptr %128, align 2, !tbaa !158
  %133 = getelementptr i8, ptr %21, i64 1
  call void @llvm.memset.p0.i64(ptr align 1 %133, i8 0, i64 1, i1 false)
  %134 = getelementptr inbounds nuw %struct.HuffEntry, ptr %21, i32 0, i32 1
  %135 = load i32, ptr %20, align 4, !tbaa !44
  %136 = trunc i32 %135 to i16
  store i16 %136, ptr %134, align 2, !tbaa !160
  call void @llvm.memcpy.p0.p0.i64(ptr align 4 %127, ptr align 2 %21, i64 4, i1 false), !tbaa.struct !161
  br label %137

137:                                              ; preds = %117
  %138 = load i32, ptr %20, align 4, !tbaa !44
  %139 = add i32 %138, 1
  store i32 %139, ptr %20, align 4, !tbaa !44
  br label %112, !llvm.loop !162

140:                                              ; preds = %116
  %141 = load ptr, ptr %10, align 8, !tbaa !152
  %142 = load ptr, ptr %11, align 8, !tbaa !154
  %143 = load i32, ptr %13, align 4, !tbaa !44
  %144 = getelementptr inbounds [33 x i16], ptr %17, i64 0, i64 0
  %145 = load i16, ptr %144, align 16, !tbaa !132
  %146 = zext i16 %145 to i32
  %147 = getelementptr inbounds [1024 x %struct.HuffEntry], ptr %15, i64 0, i64 0
  %148 = getelementptr inbounds nuw %struct.HuffEntry, ptr %147, i32 0, i32 0
  %149 = getelementptr inbounds [1024 x %struct.HuffEntry], ptr %15, i64 0, i64 0
  %150 = getelementptr inbounds nuw %struct.HuffEntry, ptr %149, i32 0, i32 1
  %151 = load ptr, ptr %8, align 8, !tbaa !29
  %152 = getelementptr inbounds nuw %struct.UtvideoContext, ptr %151, i32 0, i32 0
  %153 = load ptr, ptr %152, align 8, !tbaa !31
  %154 = call i32 @ff_vlc_init_multi_from_lengths(ptr noundef %141, ptr noundef %142, i32 noundef 11, i32 noundef %143, i32 noundef %146, ptr noundef %148, i32 noundef 4, ptr noundef %150, i32 noundef 4, i32 noundef 2, i32 noundef 0, i32 noundef 0, ptr noundef %153)
  store i32 %154, ptr %7, align 4
  store i32 1, ptr %18, align 4
  br label %155

155:                                              ; preds = %140, %88, %67, %35
  call void @llvm.lifetime.end.p0(i64 66, ptr %17) #11
  call void @llvm.lifetime.end.p0(i64 1024, ptr %16) #11
  call void @llvm.lifetime.end.p0(i64 4096, ptr %15) #11
  call void @llvm.lifetime.end.p0(i64 4, ptr %14) #11
  %156 = load i32, ptr %7, align 4
  ret i32 %156
}