; Function Attrs: nounwind uwtable
define internal fastcc i32 @build_huff(ptr noundef readonly captures(none) %0, ptr noundef readonly captures(none) %1, ptr noundef nonnull %2, ptr noundef nonnull %3, ptr noundef nonnull writeonly captures(none) initializes((0, 4)) %4, i32 noundef range(i32 256, 1025) %5) unnamed_addr #1 {
  %7 = alloca [1024 x %struct.HuffEntry], align 16
  %8 = alloca [1024 x i8], align 16
  %9 = alloca [33 x i16], align 16
  call void @llvm.lifetime.start.p0(i64 4096, ptr nonnull %7) #7
  call void @llvm.lifetime.start.p0(i64 1024, ptr nonnull %8) #7
  call void @llvm.lifetime.start.p0(i64 66, ptr nonnull %9) #7
  call void @llvm.memset.p0.i64(ptr noundef nonnull align 16 dereferenceable(66) %9, i8 0, i64 66, i1 false)
  store i32 -1, ptr %4, align 4, !tbaa !39
  %wide.trip.count = zext nneg i32 %5 to i64
  br label %10

10:                                               ; preds = %6, %22
  %indvars.iv = phi i64 [ 0, %6 ], [ %indvars.iv.next, %22 ]
  %11 = getelementptr inbounds nuw i8, ptr %1, i64 %indvars.iv
  %12 = load i8, ptr %11, align 1, !tbaa !44
  switch i8 %12, label %17 [
    i8 0, label %13
    i8 -1, label %15
  ]

13:                                               ; preds = %10
  %14 = trunc nuw nsw i64 %indvars.iv to i32
  store i32 %14, ptr %4, align 4, !tbaa !39
  br label %.loopexit

15:                                               ; preds = %10
  %16 = getelementptr inbounds nuw [1024 x i8], ptr %8, i64 0, i64 %indvars.iv
  store i8 0, ptr %16, align 1, !tbaa !44
  br label %22

17:                                               ; preds = %10
  %18 = icmp ult i8 %12, 33
  br i1 %18, label %19, label %.loopexit

19:                                               ; preds = %17
  %20 = getelementptr inbounds nuw [1024 x i8], ptr %8, i64 0, i64 %indvars.iv
  store i8 %12, ptr %20, align 1, !tbaa !44
  %21 = zext nneg i8 %12 to i64
  br label %22

22:                                               ; preds = %15, %19
  %23 = phi i64 [ 0, %15 ], [ %21, %19 ]
  %24 = getelementptr inbounds nuw [33 x i16], ptr %9, i64 0, i64 %23
  %25 = load i16, ptr %24, align 2, !tbaa !119
  %26 = add i16 %25, 1
  store i16 %26, ptr %24, align 2, !tbaa !119
  %indvars.iv.next = add nuw nsw i64 %indvars.iv, 1
  %exitcond.not = icmp eq i64 %indvars.iv.next, %wide.trip.count
  br i1 %exitcond.not, label %27, label %10, !llvm.loop !127

27:                                               ; preds = %22
  %28 = load i16, ptr %9, align 16, !tbaa !119
  %29 = zext i16 %28 to i32
  %30 = icmp eq i32 %5, %29
  br i1 %30, label %.loopexit, label %.preheader37.preheader

.preheader37.preheader:                           ; preds = %27
  %.phi.trans.insert = getelementptr inbounds nuw i8, ptr %9, i64 64
  %.pre = load i16, ptr %.phi.trans.insert, align 16, !tbaa !119
  br label %.preheader37

.preheader37:                                     ; preds = %.preheader37.preheader, %.preheader37
  %31 = phi i16 [ %.pre, %.preheader37.preheader ], [ %34, %.preheader37 ]
  %indvars.iv46 = phi i64 [ 31, %.preheader37.preheader ], [ %indvars.iv.next47, %.preheader37 ]
  %32 = getelementptr inbounds nuw [33 x i16], ptr %9, i64 0, i64 %indvars.iv46
  %33 = load i16, ptr %32, align 2, !tbaa !119
  %34 = add i16 %33, %31
  store i16 %34, ptr %32, align 2, !tbaa !119
  %indvars.iv.next47 = add nsw i64 %indvars.iv46, -1
  %.not = icmp eq i64 %indvars.iv46, 0
  br i1 %.not, label %.preheader, label %.preheader37, !llvm.loop !128

35:                                               ; preds = %.preheader
  %36 = load i16, ptr %9, align 16, !tbaa !119
  %37 = zext i16 %36 to i32
  %38 = getelementptr inbounds nuw i8, ptr %7, i64 2
  %39 = load ptr, ptr %0, align 8, !tbaa !27
  %40 = call i32 @ff_vlc_init_multi_from_lengths(ptr noundef nonnull %2, ptr noundef nonnull %3, i32 noundef 11, i32 noundef %5, i32 noundef %37, ptr noundef nonnull %7, i32 noundef 4, ptr noundef nonnull %38, i32 noundef 4, i32 noundef 2, i32 noundef 0, i32 noundef 0, ptr noundef %39) #7
  br label %.loopexit

.preheader:                                       ; preds = %.preheader37, %.preheader
  %indvars.iv49 = phi i64 [ %indvars.iv.next50, %.preheader ], [ 0, %.preheader37 ]
  %41 = getelementptr inbounds nuw [1024 x i8], ptr %8, i64 0, i64 %indvars.iv49
  %42 = load i8, ptr %41, align 1, !tbaa !44
  %43 = zext i8 %42 to i64
  %44 = getelementptr inbounds nuw [33 x i16], ptr %9, i64 0, i64 %43
  %45 = load i16, ptr %44, align 2, !tbaa !119
  %46 = add i16 %45, -1
  store i16 %46, ptr %44, align 2, !tbaa !119
  %47 = zext i16 %46 to i64
  %48 = getelementptr inbounds nuw [1024 x %struct.HuffEntry], ptr %7, i64 0, i64 %47
  %49 = trunc i64 %indvars.iv49 to i16
  store i8 %42, ptr %48, align 4, !tbaa !44
  %.sroa.2.0..sroa_idx = getelementptr inbounds nuw i8, ptr %48, i64 1
  store i8 0, ptr %.sroa.2.0..sroa_idx, align 1
  %.sroa.3.0..sroa_idx = getelementptr inbounds nuw i8, ptr %48, i64 2
  store i16 %49, ptr %.sroa.3.0..sroa_idx, align 2, !tbaa !119
  %indvars.iv.next50 = add nuw nsw i64 %indvars.iv49, 1
  %exitcond53.not = icmp eq i64 %indvars.iv.next50, %wide.trip.count
  br i1 %exitcond53.not, label %35, label %.preheader, !llvm.loop !129

.loopexit:                                        ; preds = %17, %27, %35, %13
  %.0 = phi i32 [ 0, %13 ], [ %40, %35 ], [ -1094995529, %27 ], [ -1094995529, %17 ]
  call void @llvm.lifetime.end.p0(i64 66, ptr nonnull %9) #7
  call void @llvm.lifetime.end.p0(i64 1024, ptr nonnull %8) #7
  call void @llvm.lifetime.end.p0(i64 4096, ptr nonnull %7) #7
  ret i32 %.0
}